; Function Attrs: mustprogress nounwind willreturn uwtable
define internal void @destruct(ptr noundef captures(none) %0) #1 {
  %2 = getelementptr inbounds nuw i8, ptr %0, i64 160
  %3 = load ptr, ptr %2, align 8, !tbaa !3
  %.not = icmp eq ptr %3, null
  br i1 %.not, label %5, label %4

4:                                                ; preds = %1
  tail call void @free(ptr noundef nonnull %3) #22
  store ptr null, ptr %2, align 8, !tbaa !3
  br label %5

5:                                                ; preds = %4, %1
  ret void
}